target datalayout = "e-m:e-p270:32:32-p271:32:32-p272:64:64-i64:64-i128:128-f80:128-n8:16:32:64-S128"
target triple = "x86_64-pc-linux-gnu"

%"class.nla::factor" = type <{ i32, i32, i8, [3 x i8] }>
%"class.nla::factorization" = type { %class.svector.204, ptr }
%class.svector.204 = type { %class.vector.205 }
%class.vector.205 = type { ptr }

; Function Attrs: mustprogress nounwind uwtable
define linkonce_odr hidden noundef i32 @_ZNK6vectorIN3nla6factorELb0EjE4sizeEv(ptr noundef nonnull align 8 dereferenceable(8) %0) #4 comdat align 2 {
  %2 = alloca i32, align 4
  %3 = alloca ptr, align 8
  store ptr %0, ptr %3, align 8, !tbaa !869
  %4 = load ptr, ptr %3, align 8
  %5 = getelementptr inbounds nuw %class.vector.205, ptr %4, i32 0, i32 0
  %6 = load ptr, ptr %5, align 8, !tbaa !871
  %7 = icmp eq ptr %6, null
  br i1 %7, label %8, label %9

8:                                                ; preds = %1
  store i32 0, ptr %2, align 4
  br label %14

9:                                                ; preds = %1
  %10 = getelementptr inbounds nuw %class.vector.205, ptr %4, i32 0, i32 0
  %11 = load ptr, ptr %10, align 8, !tbaa !871
  %12 = getelementptr inbounds i32, ptr %11, i64 -1
  %13 = load i32, ptr %12, align 4, !tbaa !8
  store i32 %13, ptr %2, align 4
  br label %14

14:                                               ; preds = %9, %8
  %15 = load i32, ptr %2, align 4
  ret i32 %15
}

; Function Attrs: mustprogress uwtable
define linkonce_odr hidden noundef ptr @_ZNK6vectorIN3nla6factorELb0EjE3endEv(ptr noundef nonnull align 8 dereferenceable(8) %0) #6 comdat align 2 {
  %2 = alloca ptr, align 8
  store ptr %0, ptr %2, align 8, !tbaa !869
  %3 = load ptr, ptr %2, align 8
  %4 = getelementptr inbounds nuw %class.vector.205, ptr %3, i32 0, i32 0
  %5 = load ptr, ptr %4, align 8, !tbaa !871
  %6 = call noundef i32 @_ZNK6vectorIN3nla6factorELb0EjE4sizeEv(ptr noundef nonnull align 8 dereferenceable(8) %3)
  %7 = zext i32 %6 to i64
  %8 = getelementptr inbounds nuw %"class.nla::factor", ptr %5, i64 %7
  ret ptr %8
}

; Function Attrs: mustprogress nounwind uwtable
define linkonce_odr hidden noundef ptr @_ZNK6vectorIN3nla6factorELb0EjE5beginEv(ptr noundef nonnull align 8 dereferenceable(8) %0) #4 comdat align 2 {
  %2 = alloca ptr, align 8
  store ptr %0, ptr %2, align 8, !tbaa !869
  %3 = load ptr, ptr %2, align 8
  %4 = getelementptr inbounds nuw %class.vector.205, ptr %3, i32 0, i32 0
  %5 = load ptr, ptr %4, align 8, !tbaa !871
  ret ptr %5
}

; Function Attrs: mustprogress uwtable
define linkonce_odr hidden noundef ptr @_ZNK3nla13factorization3endEv(ptr noundef nonnull align 8 dereferenceable(16) %0) #6 comdat align 2 {
  %2 = alloca ptr, align 8
  store ptr %0, ptr %2, align 8, !tbaa !317
  %3 = load ptr, ptr %2, align 8
  %4 = getelementptr inbounds nuw %"class.nla::factorization", ptr %3, i32 0, i32 0
  %5 = call noundef ptr @_ZNK6vectorIN3nla6factorELb0EjE3endEv(ptr noundef nonnull align 8 dereferenceable(8) %4)
  ret ptr %5
}

; Function Attrs: mustprogress uwtable
define linkonce_odr hidden noundef ptr @_ZNK3nla13factorization5beginEv(ptr noundef nonnull align 8 dereferenceable(16) %0) #6 comdat align 2 {
  %2 = alloca ptr, align 8
  store ptr %0, ptr %2, align 8, !tbaa !317
  %3 = load ptr, ptr %2, align 8
  %4 = getelementptr inbounds nuw %"class.nla::factorization", ptr %3, i32 0, i32 0
  %5 = call noundef ptr @_ZNK6vectorIN3nla6factorELb0EjE5beginEv(ptr noundef nonnull align 8 dereferenceable(8) %4)
  ret ptr %5
}

; Function Attrs: mustprogress nounwind uwtable
define linkonce_odr hidden noundef zeroext i1 @_ZNK3nla13factorization6is_monEv(ptr noundef nonnull align 8 dereferenceable(16) %0) #4 comdat align 2 {
  %2 = alloca ptr, align 8
  store ptr %0, ptr %2, align 8, !tbaa !317
  %3 = load ptr, ptr %2, align 8
  %4 = getelementptr inbounds nuw %"class.nla::factorization", ptr %3, i32 0, i32 1
  %5 = load ptr, ptr %4, align 8, !tbaa !419
  %6 = icmp ne ptr %5, null
  ret i1 %6
}

; Function Attrs: mustprogress uwtable
define hidden noundef nonnull align 8 dereferenceable(16) ptr @_ZN3nla9new_lemmaaNERKNS_13factorizationE(ptr noundef nonnull align 8 dereferenceable(16) %0, ptr noundef nonnull align 8 dereferenceable(16) %1) #6 align 2 {
  %3 = alloca ptr, align 8
  %4 = alloca ptr, align 8
  %5 = alloca ptr, align 8
  %6 = alloca ptr, align 8
  %7 = alloca ptr, align 8
  %8 = alloca ptr, align 8
  %9 = alloca ptr, align 8
  store ptr %0, ptr %4, align 8, !tbaa !399
  store ptr %1, ptr %5, align 8, !tbaa !317
  %10 = load ptr, ptr %4, align 8
  %11 = load ptr, ptr %5, align 8, !tbaa !317
  %12 = call noundef zeroext i1 @_ZNK3nla13factorization6is_monEv(ptr noundef nonnull align 8 dereferenceable(16) %11)
  br i1 %12, label %13, label %14

13:                                               ; preds = %2
  store ptr %10, ptr %3, align 8
  br label %33

14:                                               ; preds = %2
  call void @llvm.lifetime.start.p0(i64 8, ptr %6) #3
  %15 = load ptr, ptr %5, align 8, !tbaa !317
  store ptr %15, ptr %6, align 8, !tbaa !317
  call void @llvm.lifetime.start.p0(i64 8, ptr %7) #3
  %16 = load ptr, ptr %6, align 8, !tbaa !317
  %17 = call noundef ptr @_ZNK3nla13factorization5beginEv(ptr noundef nonnull align 8 dereferenceable(16) %16)
  store ptr %17, ptr %7, align 8, !tbaa !300
  call void @llvm.lifetime.start.p0(i64 8, ptr %8) #3
  %18 = load ptr, ptr %6, align 8, !tbaa !317
  %19 = call noundef ptr @_ZNK3nla13factorization3endEv(ptr noundef nonnull align 8 dereferenceable(16) %18)
  store ptr %19, ptr %8, align 8, !tbaa !300
  br label %20

20:                                               ; preds = %29, %14
  %21 = load ptr, ptr %7, align 8, !tbaa !300
  %22 = load ptr, ptr %8, align 8, !tbaa !300
  %23 = icmp ne ptr %21, %22
  br i1 %23, label %25, label %24

24:                                               ; preds = %20
  call void @llvm.lifetime.end.p0(i64 8, ptr %8) #3
  call void @llvm.lifetime.end.p0(i64 8, ptr %7) #3
  call void @llvm.lifetime.end.p0(i64 8, ptr %6) #3
  br label %32

25:                                               ; preds = %20
  call void @llvm.lifetime.start.p0(i64 8, ptr %9) #3
  %26 = load ptr, ptr %7, align 8, !tbaa !300
  store ptr %26, ptr %9, align 8, !tbaa !300
  %27 = load ptr, ptr %9, align 8, !tbaa !300
  %28 = call noundef nonnull align 8 dereferenceable(16) ptr @_ZN3nla9new_lemmaaNERKNS_6factorE(ptr noundef nonnull align 8 dereferenceable(16) %10, ptr noundef nonnull align 4 dereferenceable(9) %27)
  call void @llvm.lifetime.end.p0(i64 8, ptr %9) #3
  br label %29

29:                                               ; preds = %25
  %30 = load ptr, ptr %7, align 8, !tbaa !300
  %31 = getelementptr inbounds nuw %"class.nla::factor", ptr %30, i32 1
  store ptr %31, ptr %7, align 8, !tbaa !300
  br label %20

32:                                               ; preds = %24
  store ptr %10, ptr %3, align 8
  br label %33

33:                                               ; preds = %32, %13
  %34 = load ptr, ptr %3, align 8
  ret ptr %34
}