; Function Attrs: mustprogress uwtable
define hidden noundef nonnull align 8 dereferenceable(16) ptr @_ZN3nla9new_lemmaaNERKNS_13factorizationE(ptr noundef nonnull returned align 8 captures(ret: address, provenance) dereferenceable(16) %0, ptr noundef nonnull readonly align 8 captures(none) dereferenceable(16) %1) local_unnamed_addr #4 align 2 {
  %3 = getelementptr inbounds nuw i8, ptr %1, i64 8
  %4 = load ptr, ptr %3, align 8, !tbaa !444
  %.not12 = icmp eq ptr %4, null
  br i1 %.not12, label %5, label %.loopexit

5:                                                ; preds = %2
  %6 = load ptr, ptr %1, align 8, !tbaa !300
  %7 = icmp eq ptr %6, null
  br i1 %7, label %.loopexit, label %_ZNK3nla13factorization3endEv.exit

_ZNK3nla13factorization3endEv.exit:               ; preds = %5
  %8 = getelementptr inbounds i8, ptr %6, i64 -4
  %9 = load i32, ptr %8, align 4, !tbaa !249
  %10 = zext i32 %9 to i64
  %11 = getelementptr inbounds nuw %"class.nla::factor", ptr %6, i64 %10
  %.not13 = icmp eq i32 %9, 0
  br i1 %.not13, label %.loopexit, label %.lr.ph

.lr.ph:                                           ; preds = %_ZNK3nla13factorization3endEv.exit, %.lr.ph
  %.01114 = phi ptr [ %13, %.lr.ph ], [ %6, %_ZNK3nla13factorization3endEv.exit ]
  %12 = tail call noundef nonnull align 8 dereferenceable(16) ptr @_ZN3nla9new_lemmaaNERKNS_6factorE(ptr noundef nonnull align 8 dereferenceable(16) %0, ptr noundef nonnull align 4 dereferenceable(9) %.01114)
  %13 = getelementptr inbounds nuw i8, ptr %.01114, i64 12
  %.not = icmp eq ptr %13, %11
  br i1 %.not, label %.loopexit, label %.lr.ph

.loopexit:                                        ; preds = %.lr.ph, %5, %_ZNK3nla13factorization3endEv.exit, %2
  ret ptr %0
}